; ModuleID = '16/1243.c'
source_filename = "16/1243.c"
target datalayout = "e-m:e-p270:32:32-p271:32:32-p272:64:64-i64:64-f80:128-n8:16:32:64-S128"
target triple = "x86_64-pc-linux-gnu"

@.str = private unnamed_addr constant [3 x i8] c"%d\00", align 1

; Function Attrs: noinline nounwind uwtable
define dso_local i32 @main() #0 {
  %1 = alloca i32, align 4
  %2 = alloca i32, align 4
  %3 = alloca i32, align 4
  %4 = alloca i32, align 4
  %5 = alloca i32, align 4
  %6 = alloca i32, align 4
  %7 = alloca i32, align 4
  store i32 0, i32* %1, align 4
  %8 = call i32 (i8*, ...) @__isoc99_scanf(i8* getelementptr inbounds ([3 x i8], [3 x i8]* @.str, i64 0, i64 0), i32* %2)
  store i32 5, i32* %3, align 4
  br label %9

9:                                                ; preds = %24, %0
  %10 = load i32, i32* %3, align 4
  %11 = icmp sge i32 %10, 1
  br i1 %11, label %12, label %27

12:                                               ; preds = %9
  %13 = load i32, i32* %3, align 4
  %14 = sitofp i32 %13 to double
  %15 = call double @pow(double 1.000000e+01, double %14) #3
  %16 = fptosi double %15 to i32
  store i32 %16, i32* %5, align 4
  %17 = load i32, i32* %2, align 4
  %18 = load i32, i32* %5, align 4
  %19 = sdiv i32 %17, %18
  store i32 %19, i32* %6, align 4
  %20 = load i32, i32* %6, align 4
  %21 = icmp ne i32 %20, 0
  br i1 %21, label %22, label %23

22:                                               ; preds = %12
  br label %27

23:                                               ; preds = %12
  br label %24

24:                                               ; preds = %23
  %25 = load i32, i32* %3, align 4
  %26 = add nsw i32 %25, -1
  store i32 %26, i32* %3, align 4
  br label %9

27:                                               ; preds = %22, %9
  store i32 1, i32* %4, align 4
  br label %28

28:                                               ; preds = %42, %27
  %29 = load i32, i32* %4, align 4
  %30 = load i32, i32* %3, align 4
  %31 = add nsw i32 %30, 1
  %32 = icmp sle i32 %29, %31
  br i1 %32, label %33, label %45

33:                                               ; preds = %28
  %34 = load i32, i32* %2, align 4
  %35 = srem i32 %34, 10
  store i32 %35, i32* %7, align 4
  %36 = load i32, i32* %7, align 4
  %37 = call i32 (i8*, ...) @printf(i8* getelementptr inbounds ([3 x i8], [3 x i8]* @.str, i64 0, i64 0), i32 %36)
  %38 = load i32, i32* %2, align 4
  %39 = load i32, i32* %7, align 4
  %40 = sub nsw i32 %38, %39
  %41 = sdiv i32 %40, 10
  store i32 %41, i32* %2, align 4
  br label %42

42:                                               ; preds = %33
  %43 = load i32, i32* %4, align 4
  %44 = add nsw i32 %43, 1
  store i32 %44, i32* %4, align 4
  br label %28

45:                                               ; preds = %28
  ret i32 0
}

declare dso_local i32 @__isoc99_scanf(i8*, ...) #1

; Function Attrs: nounwind
declare dso_local double @pow(double, double) #2

declare dso_local i32 @printf(i8*, ...) #1


!llvm.module.flags = !{!0}
!llvm.ident = !{!1}

!0 = !{i32 1, !"wchar_size", i32 4}
!1 = !{!"clang version 10.0.0-4ubuntu1 "}
